; Function Attrs: nounwind sspstrong uwtable
define internal i64 @dir_entries(i32 noundef %0, ptr noundef %1, i64 %2) #0 {
  %4 = load i64, ptr @rb_cDir, align 8, !tbaa !7
  %.pr.i.i = load i64, ptr @dir_open_dir.rbimpl_id, align 8, !tbaa !7
  %.not1.i.i = icmp eq i64 %.pr.i.i, 0
  br i1 %.not1.i.i, label %.lr.ph.i.i, label %dir_open_dir.exit

.lr.ph.i.i:                                       ; preds = %3, %.lr.ph.i.i
  %5 = tail call i64 @rb_intern2(ptr noundef nonnull @.str.55, i64 noundef 4) #22
  store i64 %5, ptr @dir_open_dir.rbimpl_id, align 8, !tbaa !7
  %.not.i.i = icmp eq i64 %5, 0
  br i1 %.not.i.i, label %.lr.ph.i.i, label %dir_open_dir.exit, !llvm.loop !59

dir_open_dir.exit:                                ; preds = %.lr.ph.i.i, %3
  %.lcssa.i.i = phi i64 [ %.pr.i.i, %3 ], [ %5, %.lr.ph.i.i ]
  %6 = tail call i32 @rb_keyword_given_p() #22
  %7 = icmp ne i32 %6, 0
  %8 = zext i1 %7 to i32
  %9 = tail call i64 @rb_funcallv_kw(i64 noundef %4, i64 noundef %.lcssa.i.i, i32 noundef %0, ptr noundef %1, i32 noundef %8) #22
  %10 = tail call ptr @rb_check_typeddata(i64 noundef %9, ptr noundef nonnull @dir_data_type) #22
  %11 = tail call i64 @rb_ensure(ptr noundef nonnull @dir_collect, i64 noundef %9, ptr noundef nonnull @dir_close, i64 noundef %9) #22
  ret i64 %11
}